; Function Attrs: nounwind uwtable
define internal noundef ptr @async_gen_asend_send(ptr noundef captures(none) %0, ptr noundef %1) #2 {
  %3 = getelementptr inbounds nuw i8, ptr %0, i64 32
  %4 = load i32, ptr %3, align 8, !tbaa !169
  switch i32 %4, label %._crit_edge [
    i32 2, label %5
    i32 0, label %7
  ]

._crit_edge:                                      ; preds = %2
  %.phi.trans.insert = getelementptr inbounds nuw i8, ptr %0, i64 16
  %.pre = load ptr, ptr %.phi.trans.insert, align 8, !tbaa !166
  br label %21

5:                                                ; preds = %2
  %6 = load ptr, ptr @PyExc_RuntimeError, align 8, !tbaa !32
  tail call void @PyErr_SetString(ptr noundef %6, ptr noundef nonnull @.str.77) #8
  br label %30

7:                                                ; preds = %2
  %8 = getelementptr inbounds nuw i8, ptr %0, i64 16
  %9 = load ptr, ptr %8, align 8, !tbaa !166
  %10 = getelementptr inbounds nuw i8, ptr %9, i64 66
  %11 = load i8, ptr %10, align 2, !tbaa !170
  %.not = icmp eq i8 %11, 0
  br i1 %.not, label %14, label %12

12:                                               ; preds = %7
  store i32 2, ptr %3, align 8, !tbaa !169
  %13 = load ptr, ptr @PyExc_RuntimeError, align 8, !tbaa !32
  tail call void @PyErr_SetString(ptr noundef %13, ptr noundef nonnull @.str.78) #8
  br label %30

14:                                               ; preds = %7
  %15 = icmp eq ptr %1, null
  %16 = icmp eq ptr %1, @_Py_NoneStruct
  %or.cond = or i1 %15, %16
  br i1 %or.cond, label %17, label %20

17:                                               ; preds = %14
  %18 = getelementptr inbounds nuw i8, ptr %0, i64 24
  %19 = load ptr, ptr %18, align 8, !tbaa !168
  br label %20

20:                                               ; preds = %14, %17
  %.1 = phi ptr [ %19, %17 ], [ %1, %14 ]
  store i32 1, ptr %3, align 8, !tbaa !169
  br label %21

21:                                               ; preds = %._crit_edge, %20
  %22 = phi ptr [ %9, %20 ], [ %.pre, %._crit_edge ]
  %.019 = phi ptr [ %.1, %20 ], [ %1, %._crit_edge ]
  %23 = getelementptr inbounds nuw i8, ptr %0, i64 16
  %24 = getelementptr inbounds nuw i8, ptr %22, i64 66
  store i8 1, ptr %24, align 2, !tbaa !170
  %25 = tail call fastcc ptr @gen_send_ex(ptr noundef %22, ptr noundef %.019, i32 noundef 0, i32 noundef 0)
  %26 = load ptr, ptr %23, align 8, !tbaa !166
  %27 = tail call fastcc ptr @async_gen_unwrap_value(ptr noundef %26, ptr noundef %25)
  %28 = icmp eq ptr %27, null
  br i1 %28, label %29, label %30

29:                                               ; preds = %21
  store i32 2, ptr %3, align 8, !tbaa !169
  br label %30

30:                                               ; preds = %21, %29, %12, %5
  %.0 = phi ptr [ null, %5 ], [ null, %12 ], [ null, %29 ], [ %27, %21 ]
  ret ptr %.0
}